ASxxxx Linker V03.00 + NoICE + sdld,  page 1.
Hexadecimal  [32-Bits]

Area                                    Addr        Size        Decimal Bytes (Attributes)
--------------------------------        ----        ----        ------- ----- ------------
.  .ABS.                            00000000    00000000 =           0. bytes (ABS,CON)

      Value  Global                              Global Defined In Module
      -----  --------------------------------   ------------------------
     00000000  .__.ABS.                           cpct_strings
     00000000  l__CABS                         
     00000000  l__DABS                         
     00000000  l__GSFINAL                      
     00000000  l__GSINIT                       
     00000000  l__HOME                         
     00000000  l__INITIALIZED                  
     00000000  l__INITIALIZER                  
     00000000  l__g_tablatrans_                
     00000000  s__CABS                         
     00000000  s__DABS                         
     00000000  s__g_tablatrans_                
     00000000  s__g_tablatrans_0               
     0000001C  l__DATA                         
     00000100  l__g_tablatrans_0               
     00000156  l__CSEG                         
     00001000  s__CODE                         
     00001FE7  l__CODE                         
     00002FE7  s__DATA                         
     00003003  s__CSEG                         
     00003003  s__GSFINAL                      
     00003003  s__GSINIT                       
     00003003  s__HOME                         
     00003003  s__INITIALIZED                  
     00003003  s__INITIALIZER                  

ASxxxx Linker V03.00 + NoICE + sdld,  page 2.
Hexadecimal  [32-Bits]

Area                                    Addr        Size        Decimal Bytes (Attributes)
--------------------------------        ----        ----        ------- ----- ------------
_CODE                               00001000    00001FE7 =        8167. bytes (REL,CON)

      Value  Global                              Global Defined In Module
      -----  --------------------------------   ------------------------
     00001000  _g_tileset                         tileset
     0000102A  _g_tileset_00                      tileset
     0000104A  _g_tileset_01                      tileset
     0000106A  _g_tileset_02                      tileset
     0000108A  _g_tileset_03                      tileset
     000010AA  _g_tileset_04                      tileset
     000010CA  _g_tileset_05                      tileset
     000010EA  _g_tileset_06                      tileset
     0000110A  _g_tileset_07                      tileset
     0000112A  _g_tileset_08                      tileset
     0000114A  _g_tileset_09                      tileset
     0000116A  _g_tileset_10                      tileset
     0000118A  _g_tileset_11                      tileset
     000011AA  _g_tileset_12                      tileset
     000011CA  _g_tileset_13                      tileset
     000011EA  _g_tileset_14                      tileset
     0000120A  _g_tileset_15                      tileset
     0000122A  _g_tileset_16                      tileset
     0000124A  _g_tileset_17                      tileset
     0000126A  _g_tileset_18                      tileset
     0000128A  _g_tileset_19                      tileset
     000012AA  _g_tileset_20                      tileset
     000012CA  _g_markers_0                       markers
     0000132A  _g_markers_1                       markers
     0000138A  _g_border_0                        border
     00001392  _g_border_1                        border
     0000139A  _g_border_2                        border
     000013A2  _g_border_3                        border
     000013AA  _g_border_4                        border
     000013B2  _g_border_5                        border
     000013BA  _g_border_6                        border
     000013C2  _g_border_7                        border
     000013CA  _g_numbers_small_00                numbers_small
     000013D4  _g_numbers_small_01                numbers_small
     000013DE  _g_numbers_small_02                numbers_small
     000013E8  _g_numbers_small_03                numbers_small
     000013F2  _g_numbers_small_04                numbers_small
     000013FC  _g_numbers_small_05                numbers_small
     00001406  _g_numbers_small_06                numbers_small
     00001410  _g_numbers_small_07                numbers_small
     0000141A  _g_numbers_small_08                numbers_small
     00001424  _g_numbers_small_09                numbers_small
     0000142E  _g_numbers_small_10                numbers_small
     00001438  _g_numbers_small_11                numbers_small
     00001442  _g_numbers_small_12                numbers_small
     0000144C  _g_numbers_small_13                numbers_small
     00001456  _g_numbers_small_14                numbers_small
     00001460  _g_font_chars                      font_chars
     000019A6  _g_fonts_small_00                  fonts_small
     000019B0  _g_fonts_small_01                  fonts_small
ASxxxx Linker V03.00 + NoICE + sdld,  page 3.
Hexadecimal  [32-Bits]

Area                                    Addr        Size        Decimal Bytes (Attributes)
--------------------------------        ----        ----        ------- ----- ------------
_CODE                               00001000    00001FE7 =        8167. bytes (REL,CON)

      Value  Global                              Global Defined In Module
      -----  --------------------------------   ------------------------
     000019BA  _g_fonts_small_02                  fonts_small
     000019C4  _g_fonts_small_03                  fonts_small
     000019CE  _g_fonts_small_04                  fonts_small
     000019D8  _g_fonts_small_05                  fonts_small
     000019E2  _g_fonts_small_06                  fonts_small
     000019EC  _g_fonts_small_07                  fonts_small
     000019F6  _g_fonts_small_08                  fonts_small
     00001A00  _g_fonts_small_09                  fonts_small
     00001A0A  _g_fonts_small_10                  fonts_small
     00001A14  _g_fonts_small_11                  fonts_small
     00001A1E  _g_fonts_small_12                  fonts_small
     00001A28  _g_fonts_small_13                  fonts_small
     00001A32  _g_fonts_small_14                  fonts_small
     00001A3C  _g_fonts_small_15                  fonts_small
     00001A46  _g_fonts_small_16                  fonts_small
     00001A50  _g_fonts_small_17                  fonts_small
     00001A5A  _g_fonts_small_18                  fonts_small
     00001A64  _g_fonts_small_19                  fonts_small
     00001A6E  _g_fonts_small_20                  fonts_small
     00001A78  _g_fonts_small_21                  fonts_small
     00001A82  _g_fonts_small_22                  fonts_small
     00001A8C  _g_fonts_small_23                  fonts_small
     00001A96  _g_fonts_small_24                  fonts_small
     00001AA0  _g_fonts_small_25                  fonts_small
     00001AAA  _g_fonts_small_26                  fonts_small
     00001AB4  _g_fonts_small_27                  fonts_small
     00001ABE  _g_fonts_small_28                  fonts_small
     00001AC8  _sp_tiles_0                        tiles
     00001AF8  _sp_tiles_1                        tiles
     00001B28  _sp_tiles_2                        tiles
     00001B58  _sp_tiles_3                        tiles
     00001B88  _sp_tiles_4                        tiles
     00001BB8  _sp_tiles_5                        tiles
     00001BE8  _sp_tiles_6                        tiles
     00001C18  _sp_tiles_7                        tiles
     00001C48  _sp_tiles_8                        tiles
     00001C78  _initGame                          game
     00001C8D  _playGame                          game
     00001C9B  _dummy_cpct_transparentMaskTable   main
     00001C9B  _initKeys                          keyboard
     00001CAB  _tempKeys                          keyboard
     00001CBD  _wait4OneKey                       keyboard
     00001CC6  _wait4UserKeypress                 keyboard
     00001CE4  _waitForAKey                       keyboard
     00001D2D  _checkKeys                         keyboard
     00001D6A  _waitKeyUp                         keyboard
     00001D79  _wait4Key                          keyboard
     00001DA7  _playCombat                        TCombat
     00001DA8  _initHero                          THero
     00001DA9  _initNPC                           TNPC
     00001DAA  _delay                             tools
ASxxxx Linker V03.00 + NoICE + sdld,  page 4.
Hexadecimal  [32-Bits]

Area                                    Addr        Size        Decimal Bytes (Attributes)
--------------------------------        ----        ----        ------- ----- ------------
_CODE                               00001000    00001FE7 =        8167. bytes (REL,CON)

      Value  Global                              Global Defined In Module
      -----  --------------------------------   ------------------------
     00001DCD  _distance                          tools
     00001E32  _sign                              tools
     00001E5B  _collision                         tools
     00001EC8  _abs                               tools
     00001EE5  _clearScreen                       tools
     00001EFA  _clearWindow                       tools
     00001F31  _drawFrame                         tools
     000020EA  _drawWindow                        tools
     000021A5  _drawWindow2                       tools
     00002377  _itoa                              text
     0000245D  _font                              text
     00002497  _numbers                           text
     000024B5  _swapColors                        text
     00002515  _strLength                         text
     0000252B  _strCopy                           text
     00002552  _drawNumber                        text
     000025F6  _drawText                          text
     000026B6  _drawText2                         text
     00002A82  _g_tilemap                         screen00
     00002AF9  _reset_cpc                         
     00002AFD  _fast_abs                          
     00002B07  _fast_collision                    
     00002B53  _cpct_isKeyPressed                 cpct_keyboard
     00002B53  cpct_isKeyPressed_asm              cpct_keyboard
     00002B5F  _cpct_scanKeyboard_f               cpct_keyboard
     00002B5F  cpct_scanKeyboard_f_asm            cpct_keyboard
     00002BC9  _cpct_setPalette                   cpct_video
     00002BE0  _cpct_setPALColour                 cpct_video
     00002BEC  _cpct_drawSprite                   cpct_sprites
     00002C91  _cpct_keyboardStatusBuffer         cpct_keyboard
     00002C9B  _cpct_setSeed_mxor                 cpct_random
     00002C9B  cpct_setSeed_mxor_asm              cpct_random
     00002CA3  _cpct_restoreState_mxor_u8         cpct_random
     00002CA3  cpct_restoreState_mxor_u8_asm      cpct_random
     00002CA9  _cpct_getRandom_mxor_u8            cpct_random
     00002CA9  cpct_getRandom_mxor_u8_asm         cpct_random
     00002CAA  cpct_randomIdx_mxor_u8             cpct_random
     00002CCE  _cpct_setStackLocation             cpct_memutils
     00002CCE  cpct_setStackLocation_asm          cpct_memutils
     00002CD2  _cpct_nextRandom_mxor_u32          cpct_random
     00002CD2  cpct_nextRandom_mxor_u32_asm       cpct_random
     00002CF5  _cpct_isAnyKeyPressed              cpct_keyboard
     00002CF5  cpct_isAnyKeyPressed_asm           cpct_keyboard
     00002D02  _cpct_scanKeyboard_if              cpct_keyboard
     00002D02  cpct_scanKeyboard_if_asm           cpct_keyboard
     00002D6A  _cpct_waitVSYNC                    cpct_video
     00002D6A  cpct_waitVSYNC_asm                 cpct_video
     00002D72  _cpct_isAnyKeyPressed_f            cpct_keyboard
     00002D72  cpct_isAnyKeyPressed_f_asm         cpct_keyboard
     00002D8D  _cpct_setVideoMode                 cpct_video
     00002D9B  _cpct_memcpy                       cpct_memutils
ASxxxx Linker V03.00 + NoICE + sdld,  page 5.
Hexadecimal  [32-Bits]

Area                                    Addr        Size        Decimal Bytes (Attributes)
--------------------------------        ----        ----        ------- ----- ------------
_CODE                               00001000    00001FE7 =        8167. bytes (REL,CON)

      Value  Global                              Global Defined In Module
      -----  --------------------------------   ------------------------
     00002DA3  _cpct_px2byteM0                    cpct_sprites
     00002DBF  _cpct_memset                       cpct_memutils
     00002DCD  _cpct_disableFirmware              cpct_firmware
     00002DCD  _cpct_removeInterruptHandler       cpct_firmware
     00002DCD  cpct_disableFirmware_asm           cpct_firmware
     00002DCD  cpct_removeInterruptHandler_asm    cpct_firmware
     00002DDD  _cpct_drawSolidBox                 cpct_sprites
     00002E95  _cpct_mode_rom_status              cpct_firmware
     00002E96  _cpct_drawSpriteMaskedAlignedTab   cpct_sprites
     00002ED1  _cpct_scanKeyboard                 cpct_keyboard
     00002ED1  cpct_scanKeyboard_asm              cpct_keyboard
     00002F02  _cpct_getScreenPtr                 cpct_video
     00002F22  __divsint                          
     00002F2B  __divschar                         
     00002F32  __div8                             
     00002F36  __div_signexte                     
     00002F3A  __div16                            
     00002F60  __get_remainder                    
     00002F6A  _cpct_setInterruptHandler          cpct_firmware
     00002F6A  cpct_setInterruptHandler_asm       cpct_firmware
     00002F7B  cpct_safeInterruptHandlerHook      cpct_firmware
     00002F92  _cpct_mxor32_seed                  cpct_random
     00002F96  __divuint                          
     00002F9E  __divuchar                         
     00002FA5  __divu8                            
     00002FA8  __divu16                           
     00002FD7  dc_mode0_ct                        cpct_strings

ASxxxx Linker V03.00 + NoICE + sdld,  page 6.
Hexadecimal  [32-Bits]

Area                                    Addr        Size        Decimal Bytes (Attributes)
--------------------------------        ----        ----        ------- ----- ------------
_DATA                               00002FE7    0000001C =          28. bytes (REL,CON)

      Value  Global                              Global Defined In Module
      -----  --------------------------------   ------------------------
     00002FE7  _keys                              game
     00002FF9  _hero                              game
     00002FFD  _npc                               game
     00003002  _pauseGame                         TCombat

ASxxxx Linker V03.00 + NoICE + sdld,  page 7.
Hexadecimal  [32-Bits]

Area                                    Addr        Size        Decimal Bytes (Attributes)
--------------------------------        ----        ----        ------- ----- ------------
_g_tablatrans_0                     00000000    00000100 =         256. bytes (ABS,CON)

      Value  Global                              Global Defined In Module
      -----  --------------------------------   ------------------------
     00000100  _g_tablatrans                      main

ASxxxx Linker V03.00 + NoICE + sdld,  page 8.
Hexadecimal  [32-Bits]

Area                                    Addr        Size        Decimal Bytes (Attributes)
--------------------------------        ----        ----        ------- ----- ------------
_CSEG                               00003003    00000156 =         342. bytes (REL,CON)

      Value  Global                              Global Defined In Module
      -----  --------------------------------   ------------------------
     00003003  _myInterruptHandler                main
     0000302A  _sp_palette0                       main
     0000303A  _initMain                          main
     000030F6  _main                              main

ASxxxx Linker V03.00 + NoICE + sdld,  page 9.

Files Linked                              [ module(s) ]

obj/sprites/tileset.rel                   [ tileset ]
obj/sprites/markers.rel                   [ markers ]
obj/sprites/border.rel                    [ border ]
obj/sprites/numbers-small.rel             [ numbers_small ]
obj/sprites/font_chars.rel                [ font_chars ]
obj/sprites/fonts-small.rel               [ fonts_small ]
obj/sprites/tiles.rel                     [ tiles ]
obj/game.rel                              [ game ]
obj/main.rel                              [ main ]
obj/keyboard/keyboard.rel                 [ keyboard ]
obj/entities/TCombat.rel                  [ TCombat ]
obj/entities/THero.rel                    [ THero ]
obj/entities/TNPC.rel                     [ TNPC ]
obj/util/tools.rel                        [ tools ]
obj/text/text.rel                         [ text ]
obj/levels/screen00.rel                   [ screen00 ]
obj/util/util.rel                         [  ]


Libraries Linked                          [ object file ]

/home/cabox/workspace/cpctelera/cpctelera/cpctelera.lib
                                          [ cpct_isKeyPressed.rel ]
/home/cabox/workspace/cpctelera/cpctelera/cpctelera.lib
                                          [ cpct_scanKeyboard_f.rel ]
/home/cabox/workspace/cpctelera/cpctelera/cpctelera.lib
                                          [ cpct_setPalette_cbindings.rel ]
/home/cabox/workspace/cpctelera/cpctelera/cpctelera.lib
                                          [ cpct_setPALColour_cbindings.rel ]
/home/cabox/workspace/cpctelera/cpctelera/cpctelera.lib
                                          [ cpct_drawSprite_cbindings.rel ]
/home/cabox/workspace/cpctelera/cpctelera/cpctelera.lib
                                          [ keyboard.rel ]
/home/cabox/workspace/cpctelera/cpctelera/cpctelera.lib
                                          [ cpct_setSeed_mxor.rel ]
/home/cabox/workspace/cpctelera/cpctelera/cpctelera.lib
                                          [ cpct_restoreState_mxor_u8.rel ]
/home/cabox/workspace/cpctelera/cpctelera/cpctelera.lib
                                          [ cpct_getRandom_mxor_u8.rel ]
/home/cabox/workspace/cpctelera/cpctelera/cpctelera.lib
                                          [ cpct_setStackLocation.rel ]
/home/cabox/workspace/cpctelera/cpctelera/cpctelera.lib
                                          [ cpct_nextRandom_mxor_u32.rel ]
/home/cabox/workspace/cpctelera/cpctelera/cpctelera.lib
                                          [ cpct_isAnyKeyPressed.rel ]
/home/cabox/workspace/cpctelera/cpctelera/cpctelera.lib
                                          [ cpct_scanKeyboard_if.rel ]
/home/cabox/workspace/cpctelera/cpctelera/cpctelera.lib
                                          [ cpct_waitVSYNC.rel ]
/home/cabox/workspace/cpctelera/cpctelera/cpctelera.lib
                                          [ cpct_isAnyKeyPressed_f.rel ]
/home/cabox/workspace/cpctelera/cpctelera/cpctelera.lib
                                          [ cpct_setVideoMode_cbindings.rel ]
/home/cabox/workspace/cpctelera/cpctelera/cpctelera.lib
                                          [ cpct_memcpy_cbindings.rel ]
/home/cabox/workspace/cpctelera/cpctelera/cpctelera.lib
                                          [ cpct_px2byteM0_cbindings.rel ]
/home/cabox/workspace/cpctelera/cpctelera/cpctelera.lib
                                          [ cpct_memset_cbinding.rel ]
/home/cabox/workspace/cpctelera/cpctelera/cpctelera.lib
                                          [ cpct_removeInterruptHandler.rel ]
/home/cabox/workspace/cpctelera/cpctelera/cpctelera.lib
                                          [ cpct_drawSolidBox_cbindings.rel ]
/home/cabox/workspace/cpctelera/cpctelera/cpctelera.lib
                                          [ cpc_mode_rom_status.rel ]
/home/cabox/workspace/cpctelera/cpctelera/cpctelera.lib
                                          [ cpct_drawSpriteMaskedAlignedTabl ]
/home/cabox/workspace/cpctelera/cpctelera/cpctelera.lib
                                          [ cpct_scanKeyboard.rel ]
/home/cabox/workspace/cpctelera/cpctelera/cpctelera.lib
                                          [ cpct_getScreenPtr_cbindings.rel ]
/home/cabox/workspace/cpctelera/cpctelera/tools/sdcc-3.6.8-r9946/bin/../share/sdcc/lib/z80/z80.lib
                                          [ divsigned.rel ]
/home/cabox/workspace/cpctelera/cpctelera/cpctelera.lib
                                          [ cpct_setInterruptHandler.rel ]
/home/cabox/workspace/cpctelera/cpctelera/cpctelera.lib
                                          [ cpct_mxor32_seed.rel ]
/home/cabox/workspace/cpctelera/cpctelera/tools/sdcc-3.6.8-r9946/bin/../share/sdcc/lib/z80/z80.lib
                                          [ divunsigned.rel ]
/home/cabox/workspace/cpctelera/cpctelera/cpctelera.lib
                                          [ cpct_dc_mode0_ct.rel ]

ASxxxx Linker V03.00 + NoICE + sdld,  page 10.

User Base Address Definitions

_CODE = 0x1000
_DATA = 0x0000

